; Function Attrs: nounwind sspstrong uwtable
define dso_local void @tcg_gen_vec_neg8_i64(ptr noundef %0, ptr noundef %1) #2 {
  %3 = tail call ptr @tcg_constant_i64(i64 noundef -9187201950435737472) #10
  %4 = tail call ptr @tcg_temp_ebb_new_i64() #10
  %5 = tail call ptr @tcg_temp_ebb_new_i64() #10
  tail call void @tcg_gen_andc_i64(ptr noundef %5, ptr noundef %3, ptr noundef %1) #10
  tail call void @tcg_gen_andc_i64(ptr noundef %4, ptr noundef %1, ptr noundef %3) #10
  tail call void @tcg_gen_sub_i64(ptr noundef %0, ptr noundef %3, ptr noundef %4) #10
  tail call void @tcg_gen_xor_i64(ptr noundef %0, ptr noundef %0, ptr noundef %5) #10
  tail call void @tcg_temp_free_i64(ptr noundef %4) #10
  tail call void @tcg_temp_free_i64(ptr noundef %5) #10
  ret void
}